target datalayout = "e-m:e-p270:32:32-p271:32:32-p272:64:64-i64:64-i128:128-f80:128-n8:16:32:64-S128"
target triple = "x86_64-pc-linux-gnu"

%struct.cli_hashtable = type { ptr, i64, i64, i64 }
%struct.cli_element = type { ptr, i64, i64 }

@DELETED_KEY = internal constant [1 x i8] zeroinitializer, align 1
@.str.24 = private unnamed_addr constant [30 x i8] c"hashtab.c: new capacity: %zu\0A\00", align 1
@.str.25 = private unnamed_addr constant [47 x i8] c"hashtab.c: capacity problem growing from: %zu\0A\00", align 1
@.str.26 = private unnamed_addr constant [143 x i8] c"hashtab.c: Warning: growing open-addressing hashtables is slow. Either allocate more storage when initializing, or use other hashtable types!\0A\00", align 1
@.str.27 = private unnamed_addr constant [47 x i8] c"hashtab.c: Impossible - unable to rehash table\00", align 1
@.str.28 = private unnamed_addr constant [31 x i8] c"Table %p size after grow: %zu\0A\00", align 1

; Function Attrs: nounwind uwtable
define internal i32 @hash32shift(i32 noundef %0) #0 {
  %2 = alloca i32, align 4
  store i32 %0, ptr %2, align 4
  %3 = load i32, ptr %2, align 4
  %4 = xor i32 %3, -1
  %5 = load i32, ptr %2, align 4
  %6 = shl i32 %5, 15
  %7 = add i32 %4, %6
  store i32 %7, ptr %2, align 4
  %8 = load i32, ptr %2, align 4
  %9 = load i32, ptr %2, align 4
  %10 = lshr i32 %9, 12
  %11 = xor i32 %8, %10
  store i32 %11, ptr %2, align 4
  %12 = load i32, ptr %2, align 4
  %13 = load i32, ptr %2, align 4
  %14 = shl i32 %13, 2
  %15 = add i32 %12, %14
  store i32 %15, ptr %2, align 4
  %16 = load i32, ptr %2, align 4
  %17 = load i32, ptr %2, align 4
  %18 = lshr i32 %17, 4
  %19 = xor i32 %16, %18
  store i32 %19, ptr %2, align 4
  %20 = load i32, ptr %2, align 4
  %21 = load i32, ptr %2, align 4
  %22 = shl i32 %21, 3
  %23 = add i32 %20, %22
  %24 = load i32, ptr %2, align 4
  %25 = shl i32 %24, 11
  %26 = add i32 %23, %25
  store i32 %26, ptr %2, align 4
  %27 = load i32, ptr %2, align 4
  %28 = load i32, ptr %2, align 4
  %29 = lshr i32 %28, 16
  %30 = xor i32 %27, %29
  store i32 %30, ptr %2, align 4
  %31 = load i32, ptr %2, align 4
  ret i32 %31
}

; Function Attrs: nounwind uwtable
define internal i64 @hash(ptr noundef %0, i64 noundef %1, i64 noundef %2) #0 {
  %4 = alloca ptr, align 8
  %5 = alloca i64, align 8
  %6 = alloca i64, align 8
  %7 = alloca i64, align 8
  %8 = alloca i64, align 8
  store ptr %0, ptr %4, align 8
  store i64 %1, ptr %5, align 8
  store i64 %2, ptr %6, align 8
  store i64 1, ptr %7, align 8
  store i64 0, ptr %8, align 8
  br label %9

9:                                                ; preds = %25, %3
  %10 = load i64, ptr %8, align 8
  %11 = load i64, ptr %5, align 8
  %12 = icmp ult i64 %10, %11
  br i1 %12, label %13, label %28

13:                                               ; preds = %9
  %14 = load ptr, ptr %4, align 8
  %15 = load i64, ptr %8, align 8
  %16 = getelementptr inbounds i8, ptr %14, i64 %15
  %17 = load i8, ptr %16, align 1
  %18 = zext i8 %17 to i64
  %19 = load i64, ptr %7, align 8
  %20 = add i64 %19, %18
  store i64 %20, ptr %7, align 8
  %21 = load i64, ptr %7, align 8
  %22 = trunc i64 %21 to i32
  %23 = call i32 @hash32shift(i32 noundef %22)
  %24 = zext i32 %23 to i64
  store i64 %24, ptr %7, align 8
  br label %25

25:                                               ; preds = %13
  %26 = load i64, ptr %8, align 8
  %27 = add i64 %26, 1
  store i64 %27, ptr %8, align 8
  br label %9

28:                                               ; preds = %9
  %29 = load i64, ptr %7, align 8
  %30 = load i64, ptr %6, align 8
  %31 = sub i64 %30, 1
  %32 = and i64 %29, %31
  ret i64 %32
}

; Function Attrs: nounwind uwtable
define internal i64 @nearest_power(i64 noundef %0) #0 {
  %2 = alloca i64, align 8
  %3 = alloca i64, align 8
  %4 = alloca i64, align 8
  store i64 %0, ptr %3, align 8
  store i64 64, ptr %4, align 8
  br label %5

5:                                                ; preds = %16, %1
  %6 = load i64, ptr %4, align 8
  %7 = load i64, ptr %3, align 8
  %8 = icmp ult i64 %6, %7
  br i1 %8, label %9, label %17

9:                                                ; preds = %5
  %10 = load i64, ptr %4, align 8
  %11 = shl i64 %10, 1
  store i64 %11, ptr %4, align 8
  %12 = load i64, ptr %4, align 8
  %13 = icmp eq i64 %12, 0
  br i1 %13, label %14, label %16

14:                                               ; preds = %9
  %15 = load i64, ptr %3, align 8
  store i64 %15, ptr %2, align 8
  br label %19

16:                                               ; preds = %9
  br label %5

17:                                               ; preds = %5
  %18 = load i64, ptr %4, align 8
  store i64 %18, ptr %2, align 8
  br label %19

19:                                               ; preds = %17, %14
  %20 = load i64, ptr %2, align 8
  ret i64 %20
}

; Function Attrs: nounwind uwtable
define internal i32 @cli_hashtab_grow(ptr noundef %0) #0 {
  %2 = alloca i32, align 4
  %3 = alloca ptr, align 8
  %4 = alloca i64, align 8
  %5 = alloca ptr, align 8
  %6 = alloca i64, align 8
  %7 = alloca i64, align 8
  %8 = alloca i64, align 8
  %9 = alloca ptr, align 8
  %10 = alloca i64, align 8
  store ptr %0, ptr %3, align 8
  %11 = load ptr, ptr %3, align 8
  %12 = getelementptr inbounds %struct.cli_hashtable, ptr %11, i32 0, i32 1
  %13 = load i64, ptr %12, align 8
  %14 = add i64 %13, 1
  %15 = call i64 @nearest_power(i64 noundef %14)
  store i64 %15, ptr %4, align 8
  store i64 0, ptr %8, align 8
  %16 = load i64, ptr %4, align 8
  call void (ptr, ...) @cli_dbgmsg(ptr noundef @.str.24, i64 noundef %16)
  %17 = load i64, ptr %4, align 8
  %18 = load ptr, ptr %3, align 8
  %19 = getelementptr inbounds %struct.cli_hashtable, ptr %18, i32 0, i32 1
  %20 = load i64, ptr %19, align 8
  %21 = icmp eq i64 %17, %20
  br i1 %21, label %22, label %26

22:                                               ; preds = %1
  %23 = load ptr, ptr %3, align 8
  %24 = getelementptr inbounds %struct.cli_hashtable, ptr %23, i32 0, i32 1
  %25 = load i64, ptr %24, align 8
  call void (ptr, ...) @cli_errmsg(ptr noundef @.str.25, i64 noundef %25)
  store i32 20, ptr %2, align 4
  br label %142

26:                                               ; preds = %1
  %27 = load i64, ptr %4, align 8
  %28 = call ptr @cli_max_calloc(i64 noundef %27, i64 noundef 24)
  store ptr %28, ptr %5, align 8
  %29 = load ptr, ptr %5, align 8
  %30 = icmp ne ptr %29, null
  br i1 %30, label %32, label %31

31:                                               ; preds = %26
  store i32 20, ptr %2, align 4
  br label %142

32:                                               ; preds = %26
  call void (ptr, ...) @cli_dbgmsg(ptr noundef @.str.26)
  store i64 0, ptr %6, align 8
  br label %33

33:                                               ; preds = %117, %32
  %34 = load i64, ptr %6, align 8
  %35 = load ptr, ptr %3, align 8
  %36 = getelementptr inbounds %struct.cli_hashtable, ptr %35, i32 0, i32 1
  %37 = load i64, ptr %36, align 8
  %38 = icmp ult i64 %34, %37
  br i1 %38, label %39, label %120

39:                                               ; preds = %33
  %40 = load ptr, ptr %3, align 8
  %41 = getelementptr inbounds %struct.cli_hashtable, ptr %40, i32 0, i32 0
  %42 = load ptr, ptr %41, align 8
  %43 = load i64, ptr %6, align 8
  %44 = getelementptr inbounds %struct.cli_element, ptr %42, i64 %43
  %45 = getelementptr inbounds %struct.cli_element, ptr %44, i32 0, i32 0
  %46 = load ptr, ptr %45, align 8
  %47 = icmp ne ptr %46, null
  br i1 %47, label %48, label %116

48:                                               ; preds = %39
  %49 = load ptr, ptr %3, align 8
  %50 = getelementptr inbounds %struct.cli_hashtable, ptr %49, i32 0, i32 0
  %51 = load ptr, ptr %50, align 8
  %52 = load i64, ptr %6, align 8
  %53 = getelementptr inbounds %struct.cli_element, ptr %51, i64 %52
  %54 = getelementptr inbounds %struct.cli_element, ptr %53, i32 0, i32 0
  %55 = load ptr, ptr %54, align 8
  %56 = icmp ne ptr %55, @DELETED_KEY
  br i1 %56, label %57, label %116

57:                                               ; preds = %48
  store i64 1, ptr %10, align 8
  %58 = load ptr, ptr %3, align 8
  %59 = getelementptr inbounds %struct.cli_hashtable, ptr %58, i32 0, i32 0
  %60 = load ptr, ptr %59, align 8
  %61 = load i64, ptr %6, align 8
  %62 = getelementptr inbounds %struct.cli_element, ptr %60, i64 %61
  %63 = getelementptr inbounds %struct.cli_element, ptr %62, i32 0, i32 0
  %64 = load ptr, ptr %63, align 8
  %65 = load ptr, ptr %3, align 8
  %66 = getelementptr inbounds %struct.cli_hashtable, ptr %65, i32 0, i32 0
  %67 = load ptr, ptr %66, align 8
  %68 = load i64, ptr %6, align 8
  %69 = getelementptr inbounds %struct.cli_element, ptr %67, i64 %68
  %70 = getelementptr inbounds %struct.cli_element, ptr %69, i32 0, i32 2
  %71 = load i64, ptr %70, align 8
  %72 = load i64, ptr %4, align 8
  %73 = call i64 @hash(ptr noundef %64, i64 noundef %71, i64 noundef %72)
  store i64 %73, ptr %7, align 8
  %74 = load ptr, ptr %5, align 8
  %75 = load i64, ptr %7, align 8
  %76 = getelementptr inbounds %struct.cli_element, ptr %74, i64 %75
  store ptr %76, ptr %9, align 8
  br label %77

77:                                               ; preds = %88, %57
  %78 = load ptr, ptr %9, align 8
  %79 = getelementptr inbounds %struct.cli_element, ptr %78, i32 0, i32 0
  %80 = load ptr, ptr %79, align 8
  %81 = icmp ne ptr %80, null
  br i1 %81, label %82, label %86

82:                                               ; preds = %77
  %83 = load i64, ptr %10, align 8
  %84 = load i64, ptr %4, align 8
  %85 = icmp ule i64 %83, %84
  br label %86

86:                                               ; preds = %82, %77
  %87 = phi i1 [ false, %77 ], [ %85, %82 ]
  br i1 %87, label %88, label %99

88:                                               ; preds = %86
  %89 = load i64, ptr %7, align 8
  %90 = load i64, ptr %10, align 8
  %91 = add i64 %90, 1
  store i64 %91, ptr %10, align 8
  %92 = add i64 %89, %90
  %93 = load i64, ptr %4, align 8
  %94 = sub i64 %93, 1
  %95 = and i64 %92, %94
  store i64 %95, ptr %7, align 8
  %96 = load ptr, ptr %5, align 8
  %97 = load i64, ptr %7, align 8
  %98 = getelementptr inbounds %struct.cli_element, ptr %96, i64 %97
  store ptr %98, ptr %9, align 8
  br label %77

99:                                               ; preds = %86
  %100 = load ptr, ptr %9, align 8
  %101 = getelementptr inbounds %struct.cli_element, ptr %100, i32 0, i32 0
  %102 = load ptr, ptr %101, align 8
  %103 = icmp ne ptr %102, null
  br i1 %103, label %113, label %104

104:                                              ; preds = %99
  %105 = load ptr, ptr %9, align 8
  %106 = load ptr, ptr %3, align 8
  %107 = getelementptr inbounds %struct.cli_hashtable, ptr %106, i32 0, i32 0
  %108 = load ptr, ptr %107, align 8
  %109 = load i64, ptr %6, align 8
  %110 = getelementptr inbounds %struct.cli_element, ptr %108, i64 %109
  call void @llvm.memcpy.p0.p0.i64(ptr align 8 %105, ptr align 8 %110, i64 24, i1 false)
  %111 = load i64, ptr %8, align 8
  %112 = add i64 %111, 1
  store i64 %112, ptr %8, align 8
  br label %115

113:                                              ; preds = %99
  call void (ptr, ...) @cli_errmsg(ptr noundef @.str.27)
  %114 = load ptr, ptr %5, align 8
  call void @free(ptr noundef %114) #7
  store i32 20, ptr %2, align 4
  br label %142

115:                                              ; preds = %104
  br label %116

116:                                              ; preds = %115, %48, %39
  br label %117

117:                                              ; preds = %116
  %118 = load i64, ptr %6, align 8
  %119 = add i64 %118, 1
  store i64 %119, ptr %6, align 8
  br label %33

120:                                              ; preds = %33
  %121 = load ptr, ptr %3, align 8
  %122 = getelementptr inbounds %struct.cli_hashtable, ptr %121, i32 0, i32 0
  %123 = load ptr, ptr %122, align 8
  call void @free(ptr noundef %123) #7
  %124 = load ptr, ptr %5, align 8
  %125 = load ptr, ptr %3, align 8
  %126 = getelementptr inbounds %struct.cli_hashtable, ptr %125, i32 0, i32 0
  store ptr %124, ptr %126, align 8
  %127 = load i64, ptr %8, align 8
  %128 = load ptr, ptr %3, align 8
  %129 = getelementptr inbounds %struct.cli_hashtable, ptr %128, i32 0, i32 2
  store i64 %127, ptr %129, align 8
  %130 = load i64, ptr %4, align 8
  %131 = load ptr, ptr %3, align 8
  %132 = getelementptr inbounds %struct.cli_hashtable, ptr %131, i32 0, i32 1
  store i64 %130, ptr %132, align 8
  %133 = load i64, ptr %4, align 8
  %134 = mul i64 %133, 8
  %135 = udiv i64 %134, 10
  %136 = load ptr, ptr %3, align 8
  %137 = getelementptr inbounds %struct.cli_hashtable, ptr %136, i32 0, i32 3
  store i64 %135, ptr %137, align 8
  %138 = load ptr, ptr %3, align 8
  %139 = load ptr, ptr %3, align 8
  %140 = getelementptr inbounds %struct.cli_hashtable, ptr %139, i32 0, i32 1
  %141 = load i64, ptr %140, align 8
  call void (ptr, ...) @cli_dbgmsg(ptr noundef @.str.28, ptr noundef %138, i64 noundef %141)
  store i32 0, ptr %2, align 4
  br label %142

142:                                              ; preds = %120, %113, %31, %22
  %143 = load i32, ptr %2, align 4
  ret i32 %143
}