; Function Attrs: nounwind uwtable
define internal fastcc void @cli_hashtab_grow(ptr noundef %0) unnamed_addr #0 {
  %2 = getelementptr inbounds i8, ptr %0, i64 8
  %3 = load i64, ptr %2, align 8
  %4 = add i64 %3, 1
  br label %5

5:                                                ; preds = %7, %1
  %.0.i = phi i64 [ 64, %1 ], [ %8, %7 ]
  %6 = icmp ult i64 %.0.i, %4
  br i1 %6, label %7, label %nearest_power.exit

7:                                                ; preds = %5
  %8 = shl i64 %.0.i, 1
  %9 = icmp eq i64 %8, 0
  br i1 %9, label %nearest_power.exit, label %5

nearest_power.exit:                               ; preds = %5, %7
  %.07.i = phi i64 [ %4, %7 ], [ %.0.i, %5 ]
  tail call void (ptr, ...) @cli_dbgmsg(ptr noundef nonnull @.str.24, i64 noundef %.07.i) #18
  %10 = load i64, ptr %2, align 8
  %11 = icmp eq i64 %.07.i, %10
  br i1 %11, label %12, label %13

12:                                               ; preds = %nearest_power.exit
  tail call void (ptr, ...) @cli_errmsg(ptr noundef nonnull @.str.25, i64 noundef %.07.i) #18
  br label %59

13:                                               ; preds = %nearest_power.exit
  %14 = tail call ptr @cli_max_calloc(i64 noundef %.07.i, i64 noundef 24) #18
  %.not = icmp eq ptr %14, null
  br i1 %.not, label %59, label %15

15:                                               ; preds = %13
  tail call void (ptr, ...) @cli_dbgmsg(ptr noundef nonnull @.str.26) #18
  %16 = load i64, ptr %2, align 8
  %.not70 = icmp eq i64 %16, 0
  br i1 %.not70, label %._crit_edge68, label %.lr.ph67.split.preheader

.lr.ph67.split.preheader:                         ; preds = %15
  %17 = add i64 %.07.i, -1
  br label %.lr.ph67.split

.lr.ph67.split:                                   ; preds = %.lr.ph67.split.preheader, %50
  %18 = phi i64 [ %51, %50 ], [ %16, %.lr.ph67.split.preheader ]
  %.04765 = phi i64 [ %.1, %50 ], [ 0, %.lr.ph67.split.preheader ]
  %.04964 = phi i64 [ %52, %50 ], [ 0, %.lr.ph67.split.preheader ]
  %19 = load ptr, ptr %0, align 8
  %20 = getelementptr inbounds %struct.cli_element, ptr %19, i64 %.04964
  %21 = load ptr, ptr %20, align 8
  %.not55 = icmp eq ptr %21, null
  %.not56 = icmp eq ptr %21, @DELETED_KEY
  %or.cond = or i1 %.not55, %.not56
  br i1 %or.cond, label %50, label %22

22:                                               ; preds = %.lr.ph67.split
  %23 = getelementptr inbounds i8, ptr %20, i64 16
  %24 = load i64, ptr %23, align 8
  %.not.i = icmp eq i64 %24, 0
  br i1 %.not.i, label %hash.exit, label %.lr.ph.i

.lr.ph.i:                                         ; preds = %22, %.lr.ph.i
  %.010.i = phi i64 [ %40, %.lr.ph.i ], [ 0, %22 ]
  %.089.i = phi i32 [ %39, %.lr.ph.i ], [ 1, %22 ]
  %25 = getelementptr inbounds i8, ptr %21, i64 %.010.i
  %26 = load i8, ptr %25, align 1
  %27 = zext i8 %26 to i32
  %28 = add i32 %.089.i, %27
  %29 = xor i32 %28, -1
  %30 = shl i32 %28, 15
  %31 = add i32 %30, %29
  %32 = lshr i32 %31, 12
  %33 = xor i32 %32, %31
  %34 = mul i32 %33, 5
  %35 = lshr i32 %34, 4
  %36 = xor i32 %35, %34
  %37 = mul i32 %36, 2057
  %38 = lshr i32 %37, 16
  %39 = xor i32 %38, %37
  %40 = add nuw i64 %.010.i, 1
  %exitcond.not.i = icmp eq i64 %40, %24
  br i1 %exitcond.not.i, label %._crit_edge.loopexit.i, label %.lr.ph.i

._crit_edge.loopexit.i:                           ; preds = %.lr.ph.i
  %41 = zext i32 %39 to i64
  br label %hash.exit

hash.exit:                                        ; preds = %22, %._crit_edge.loopexit.i
  %.08.lcssa.i = phi i64 [ 1, %22 ], [ %41, %._crit_edge.loopexit.i ]
  %.04859 = and i64 %.08.lcssa.i, %17
  %.04660 = getelementptr inbounds %struct.cli_element, ptr %14, i64 %.04859
  %42 = load ptr, ptr %.04660, align 8
  %.not75 = icmp eq ptr %42, null
  br i1 %.not75, label %._crit_edge.thread, label %.lr.ph

.lr.ph:                                           ; preds = %hash.exit, %.lr.ph
  %.04862 = phi i64 [ %.048, %.lr.ph ], [ %.04859, %hash.exit ]
  %.061 = phi i64 [ %43, %.lr.ph ], [ 1, %hash.exit ]
  %43 = add i64 %.061, 1
  %44 = add i64 %.04862, %.061
  %.048 = and i64 %44, %17
  %.046 = getelementptr inbounds %struct.cli_element, ptr %14, i64 %.048
  %45 = load ptr, ptr %.046, align 8
  %46 = icmp ne ptr %45, null
  %47 = icmp ule i64 %43, %.07.i
  %48 = and i1 %46, %47
  br i1 %48, label %.lr.ph, label %._crit_edge

._crit_edge:                                      ; preds = %.lr.ph
  br i1 %46, label %.split.us, label %._crit_edge.thread

._crit_edge.thread:                               ; preds = %hash.exit, %._crit_edge
  %.046.lcssa78 = phi ptr [ %.046, %._crit_edge ], [ %.04660, %hash.exit ]
  tail call void @llvm.memcpy.p0.p0.i64(ptr noundef nonnull align 8 dereferenceable(24) %.046.lcssa78, ptr noundef nonnull align 8 dereferenceable(24) %20, i64 24, i1 false)
  %49 = add i64 %.04765, 1
  %.pre = load i64, ptr %2, align 8
  br label %50

.split.us:                                        ; preds = %._crit_edge
  tail call void (ptr, ...) @cli_errmsg(ptr noundef nonnull @.str.27) #18
  tail call void @free(ptr noundef nonnull %14) #18
  br label %59

50:                                               ; preds = %.lr.ph67.split, %._crit_edge.thread
  %51 = phi i64 [ %.pre, %._crit_edge.thread ], [ %18, %.lr.ph67.split ]
  %.1 = phi i64 [ %49, %._crit_edge.thread ], [ %.04765, %.lr.ph67.split ]
  %52 = add nuw i64 %.04964, 1
  %53 = icmp ult i64 %52, %51
  br i1 %53, label %.lr.ph67.split, label %._crit_edge68

._crit_edge68:                                    ; preds = %50, %15
  %.047.lcssa = phi i64 [ 0, %15 ], [ %.1, %50 ]
  %54 = load ptr, ptr %0, align 8
  tail call void @free(ptr noundef %54) #18
  store ptr %14, ptr %0, align 8
  %55 = getelementptr inbounds i8, ptr %0, i64 16
  store i64 %.047.lcssa, ptr %55, align 8
  store i64 %.07.i, ptr %2, align 8
  %56 = shl i64 %.07.i, 3
  %57 = udiv i64 %56, 10
  %58 = getelementptr inbounds i8, ptr %0, i64 24
  store i64 %57, ptr %58, align 8
  tail call void (ptr, ...) @cli_dbgmsg(ptr noundef nonnull @.str.28, ptr noundef nonnull %0, i64 noundef %.07.i) #18
  br label %59

59:                                               ; preds = %13, %._crit_edge68, %.split.us, %12
  ret void
}